target datalayout = "e-m:e-p270:32:32-p271:32:32-p272:64:64-i64:64-i128:128-f80:128-n8:16:32:64-S128"
target triple = "x86_64-pc-linux-gnu"

%"class.open_spiel::algorithms::CorrDevBuilder" = type { %"class.std::mersenne_twister_engine", double, %"class.absl::debian2::flat_hash_map", %"class.absl::debian2::flat_hash_map.4" }
%"class.std::mersenne_twister_engine" = type { [624 x i64], i64 }
%"class.absl::debian2::flat_hash_map" = type { %"class.absl::debian2::container_internal::raw_hash_map" }
%"class.absl::debian2::container_internal::raw_hash_map" = type { %"class.absl::debian2::container_internal::raw_hash_set" }
%"class.absl::debian2::container_internal::raw_hash_set" = type { ptr, ptr, i64, i64, %"class.absl::debian2::container_internal::CompressedTuple" }
%"class.absl::debian2::container_internal::CompressedTuple" = type { %"struct.absl::debian2::container_internal::internal_compressed_tuple::CompressedTupleImpl" }
%"struct.absl::debian2::container_internal::internal_compressed_tuple::CompressedTupleImpl" = type { %"struct.absl::debian2::container_internal::internal_compressed_tuple::Storage" }
%"struct.absl::debian2::container_internal::internal_compressed_tuple::Storage" = type { i64 }
%"class.absl::debian2::flat_hash_map.4" = type { %"class.absl::debian2::container_internal::raw_hash_map.5" }
%"class.absl::debian2::container_internal::raw_hash_map.5" = type { %"class.absl::debian2::container_internal::raw_hash_set.6" }
%"class.absl::debian2::container_internal::raw_hash_set.6" = type { ptr, ptr, i64, i64, %"class.absl::debian2::container_internal::CompressedTuple.7" }
%"class.absl::debian2::container_internal::CompressedTuple.7" = type { %"struct.absl::debian2::container_internal::internal_compressed_tuple::CompressedTupleImpl.8" }
%"struct.absl::debian2::container_internal::internal_compressed_tuple::CompressedTupleImpl.8" = type { %"struct.absl::debian2::container_internal::internal_compressed_tuple::Storage" }
%"class.open_spiel::TabularPolicy" = type { %"class.open_spiel::Policy", %"class.std::unordered_map" }
%"class.open_spiel::Policy" = type { ptr }
%"class.std::unordered_map" = type { %"class.std::_Hashtable" }
%"class.std::_Hashtable" = type { ptr, i64, %"struct.std::__detail::_Hash_node_base", i64, %"struct.std::__detail::_Prime_rehash_policy", ptr }
%"struct.std::__detail::_Hash_node_base" = type { ptr }
%"struct.std::__detail::_Prime_rehash_policy" = type { float, i64 }
%"class.std::vector.34" = type { %"struct.std::_Vector_base.35" }
%"struct.std::_Vector_base.35" = type { %"struct.std::_Vector_base<std::pair<double, open_spiel::TabularPolicy>, std::allocator<std::pair<double, open_spiel::TabularPolicy>>>::_Vector_impl" }
%"struct.std::_Vector_base<std::pair<double, open_spiel::TabularPolicy>, std::allocator<std::pair<double, open_spiel::TabularPolicy>>>::_Vector_impl" = type { %"struct.std::_Vector_base<std::pair<double, open_spiel::TabularPolicy>, std::allocator<std::pair<double, open_spiel::TabularPolicy>>>::_Vector_impl_data" }
%"struct.std::_Vector_base<std::pair<double, open_spiel::TabularPolicy>, std::allocator<std::pair<double, open_spiel::TabularPolicy>>>::_Vector_impl_data" = type { ptr, ptr, ptr }
%"struct.std::pair.42" = type { double, %"class.open_spiel::TabularPolicy" }
%"class.__gnu_cxx::__normal_iterator" = type { ptr }

@_ZN10open_spiel10algorithms14CorrDevBuilderC1Ei = unnamed_addr alias void (ptr, i32), ptr @_ZN10open_spiel10algorithms14CorrDevBuilderC2Ei

; Function Attrs: mustprogress nounwind uwtable
define linkonce_odr noundef nonnull align 8 dereferenceable(8) ptr @_ZNK9__gnu_cxx17__normal_iteratorIPKSt4pairIdN10open_spiel13TabularPolicyEESt6vectorIS4_SaIS4_EEE4baseEv(ptr noundef nonnull align 8 dereferenceable(8) %0) #5 comdat align 2 {
  %2 = alloca ptr, align 8
  store ptr %0, ptr %2, align 8
  %3 = load ptr, ptr %2, align 8
  %4 = getelementptr inbounds nuw %"class.__gnu_cxx::__normal_iterator", ptr %3, i32 0, i32 0
  ret ptr %4
}

; Function Attrs: mustprogress nounwind uwtable
define linkonce_odr void @_ZN9__gnu_cxx17__normal_iteratorIPKSt4pairIdN10open_spiel13TabularPolicyEESt6vectorIS4_SaIS4_EEEC2ERKS6_(ptr noundef nonnull align 8 dereferenceable(8) %0, ptr noundef nonnull align 8 dereferenceable(8) %1) unnamed_addr #5 comdat align 2 {
  %3 = alloca ptr, align 8
  %4 = alloca ptr, align 8
  store ptr %0, ptr %3, align 8
  store ptr %1, ptr %4, align 8
  %5 = load ptr, ptr %3, align 8
  %6 = getelementptr inbounds nuw %"class.__gnu_cxx::__normal_iterator", ptr %5, i32 0, i32 0
  %7 = load ptr, ptr %4, align 8
  %8 = load ptr, ptr %7, align 8
  store ptr %8, ptr %6, align 8
  ret void
}

; Function Attrs: mustprogress nounwind uwtable
define linkonce_odr noundef nonnull align 8 dereferenceable(8) ptr @_ZN9__gnu_cxx17__normal_iteratorIPKSt4pairIdN10open_spiel13TabularPolicyEESt6vectorIS4_SaIS4_EEEppEv(ptr noundef nonnull align 8 dereferenceable(8) %0) #5 comdat align 2 {
  %2 = alloca ptr, align 8
  store ptr %0, ptr %2, align 8
  %3 = load ptr, ptr %2, align 8
  %4 = getelementptr inbounds nuw %"class.__gnu_cxx::__normal_iterator", ptr %3, i32 0, i32 0
  %5 = load ptr, ptr %4, align 8
  %6 = getelementptr inbounds %"struct.std::pair.42", ptr %5, i32 1
  store ptr %6, ptr %4, align 8
  ret ptr %3
}

; Function Attrs: mustprogress nounwind uwtable
define linkonce_odr noundef nonnull align 8 dereferenceable(72) ptr @_ZNK9__gnu_cxx17__normal_iteratorIPKSt4pairIdN10open_spiel13TabularPolicyEESt6vectorIS4_SaIS4_EEEdeEv(ptr noundef nonnull align 8 dereferenceable(8) %0) #5 comdat align 2 {
  %2 = alloca ptr, align 8
  store ptr %0, ptr %2, align 8
  %3 = load ptr, ptr %2, align 8
  %4 = getelementptr inbounds nuw %"class.__gnu_cxx::__normal_iterator", ptr %3, i32 0, i32 0
  %5 = load ptr, ptr %4, align 8
  ret ptr %5
}

; Function Attrs: mustprogress nounwind uwtable
define linkonce_odr noundef zeroext i1 @_ZN9__gnu_cxxneIPKSt4pairIdN10open_spiel13TabularPolicyEESt6vectorIS4_SaIS4_EEEEbRKNS_17__normal_iteratorIT_T0_EESF_(ptr noundef nonnull align 8 dereferenceable(8) %0, ptr noundef nonnull align 8 dereferenceable(8) %1) #5 comdat {
  %3 = alloca ptr, align 8
  %4 = alloca ptr, align 8
  store ptr %0, ptr %3, align 8
  store ptr %1, ptr %4, align 8
  %5 = load ptr, ptr %3, align 8
  %6 = call noundef nonnull align 8 dereferenceable(8) ptr @_ZNK9__gnu_cxx17__normal_iteratorIPKSt4pairIdN10open_spiel13TabularPolicyEESt6vectorIS4_SaIS4_EEE4baseEv(ptr noundef nonnull align 8 dereferenceable(8) %5) #3
  %7 = load ptr, ptr %6, align 8
  %8 = load ptr, ptr %4, align 8
  %9 = call noundef nonnull align 8 dereferenceable(8) ptr @_ZNK9__gnu_cxx17__normal_iteratorIPKSt4pairIdN10open_spiel13TabularPolicyEESt6vectorIS4_SaIS4_EEE4baseEv(ptr noundef nonnull align 8 dereferenceable(8) %8) #3
  %10 = load ptr, ptr %9, align 8
  %11 = icmp ne ptr %7, %10
  ret i1 %11
}

; Function Attrs: mustprogress nounwind uwtable
define linkonce_odr ptr @_ZNKSt6vectorISt4pairIdN10open_spiel13TabularPolicyEESaIS3_EE3endEv(ptr noundef nonnull align 8 dereferenceable(24) %0) #5 comdat align 2 {
  %2 = alloca %"class.__gnu_cxx::__normal_iterator", align 8
  %3 = alloca ptr, align 8
  store ptr %0, ptr %3, align 8
  %4 = load ptr, ptr %3, align 8
  %5 = getelementptr inbounds nuw %"struct.std::_Vector_base.35", ptr %4, i32 0, i32 0
  %6 = getelementptr inbounds nuw %"struct.std::_Vector_base<std::pair<double, open_spiel::TabularPolicy>, std::allocator<std::pair<double, open_spiel::TabularPolicy>>>::_Vector_impl_data", ptr %5, i32 0, i32 1
  call void @_ZN9__gnu_cxx17__normal_iteratorIPKSt4pairIdN10open_spiel13TabularPolicyEESt6vectorIS4_SaIS4_EEEC2ERKS6_(ptr noundef nonnull align 8 dereferenceable(8) %2, ptr noundef nonnull align 8 dereferenceable(8) %6) #3
  %7 = getelementptr inbounds nuw %"class.__gnu_cxx::__normal_iterator", ptr %2, i32 0, i32 0
  %8 = load ptr, ptr %7, align 8
  ret ptr %8
}

; Function Attrs: mustprogress nounwind uwtable
define linkonce_odr ptr @_ZNKSt6vectorISt4pairIdN10open_spiel13TabularPolicyEESaIS3_EE5beginEv(ptr noundef nonnull align 8 dereferenceable(24) %0) #5 comdat align 2 {
  %2 = alloca %"class.__gnu_cxx::__normal_iterator", align 8
  %3 = alloca ptr, align 8
  store ptr %0, ptr %3, align 8
  %4 = load ptr, ptr %3, align 8
  %5 = getelementptr inbounds nuw %"struct.std::_Vector_base.35", ptr %4, i32 0, i32 0
  %6 = getelementptr inbounds nuw %"struct.std::_Vector_base<std::pair<double, open_spiel::TabularPolicy>, std::allocator<std::pair<double, open_spiel::TabularPolicy>>>::_Vector_impl_data", ptr %5, i32 0, i32 0
  call void @_ZN9__gnu_cxx17__normal_iteratorIPKSt4pairIdN10open_spiel13TabularPolicyEESt6vectorIS4_SaIS4_EEEC2ERKS6_(ptr noundef nonnull align 8 dereferenceable(8) %2, ptr noundef nonnull align 8 dereferenceable(8) %6) #3
  %7 = getelementptr inbounds nuw %"class.__gnu_cxx::__normal_iterator", ptr %2, i32 0, i32 0
  %8 = load ptr, ptr %7, align 8
  ret ptr %8
}

; Function Attrs: mustprogress uwtable
define void @_ZN10open_spiel10algorithms25SampledDeterminizeCorrDevERKSt6vectorISt4pairIdNS_13TabularPolicyEESaIS4_EEi(ptr dead_on_unwind noalias writable sret(%"class.std::vector.34") align 8 %0, ptr noundef nonnull align 8 dereferenceable(24) %1, i32 noundef %2) #4 personality ptr @__gxx_personality_v0 {
  %4 = alloca ptr, align 8
  %5 = alloca ptr, align 8
  %6 = alloca i32, align 4
  %7 = alloca %"class.open_spiel::algorithms::CorrDevBuilder", align 8
  %8 = alloca ptr, align 8
  %9 = alloca %"class.__gnu_cxx::__normal_iterator", align 8
  %10 = alloca %"class.__gnu_cxx::__normal_iterator", align 8
  %11 = alloca ptr, align 8
  %12 = alloca ptr, align 8
  %13 = alloca i32, align 4
  store ptr %0, ptr %4, align 8
  store ptr %1, ptr %5, align 8
  store i32 %2, ptr %6, align 4
  call void @_ZN10open_spiel10algorithms14CorrDevBuilderC1Ei(ptr noundef nonnull align 8 dereferenceable(5088) %7, i32 noundef 0)
  %14 = load ptr, ptr %5, align 8
  store ptr %14, ptr %8, align 8
  %15 = load ptr, ptr %8, align 8
  %16 = call ptr @_ZNKSt6vectorISt4pairIdN10open_spiel13TabularPolicyEESaIS3_EE5beginEv(ptr noundef nonnull align 8 dereferenceable(24) %15) #3
  %17 = getelementptr inbounds nuw %"class.__gnu_cxx::__normal_iterator", ptr %9, i32 0, i32 0
  store ptr %16, ptr %17, align 8
  %18 = load ptr, ptr %8, align 8
  %19 = call ptr @_ZNKSt6vectorISt4pairIdN10open_spiel13TabularPolicyEESaIS3_EE3endEv(ptr noundef nonnull align 8 dereferenceable(24) %18) #3
  %20 = getelementptr inbounds nuw %"class.__gnu_cxx::__normal_iterator", ptr %10, i32 0, i32 0
  store ptr %19, ptr %20, align 8
  br label %21

21:                                               ; preds = %32, %3
  %22 = call noundef zeroext i1 @_ZN9__gnu_cxxneIPKSt4pairIdN10open_spiel13TabularPolicyEESt6vectorIS4_SaIS4_EEEEbRKNS_17__normal_iteratorIT_T0_EESF_(ptr noundef nonnull align 8 dereferenceable(8) %9, ptr noundef nonnull align 8 dereferenceable(8) %10) #3
  br i1 %22, label %23, label %38

23:                                               ; preds = %21
  %24 = call noundef nonnull align 8 dereferenceable(72) ptr @_ZNK9__gnu_cxx17__normal_iteratorIPKSt4pairIdN10open_spiel13TabularPolicyEESt6vectorIS4_SaIS4_EEEdeEv(ptr noundef nonnull align 8 dereferenceable(8) %9) #3
  store ptr %24, ptr %11, align 8
  %25 = load ptr, ptr %11, align 8
  %26 = getelementptr inbounds nuw %"struct.std::pair.42", ptr %25, i32 0, i32 1
  %27 = load i32, ptr %6, align 4
  %28 = load ptr, ptr %11, align 8
  %29 = getelementptr inbounds nuw %"struct.std::pair.42", ptr %28, i32 0, i32 0
  %30 = load double, ptr %29, align 8
  invoke void @_ZN10open_spiel10algorithms14CorrDevBuilder21AddSampledJointPolicyERKNS_13TabularPolicyEid(ptr noundef nonnull align 8 dereferenceable(5088) %7, ptr noundef nonnull align 8 dereferenceable(64) %26, i32 noundef %27, double noundef %30)
          to label %31 unwind label %34

31:                                               ; preds = %23
  br label %32

32:                                               ; preds = %31
  %33 = call noundef nonnull align 8 dereferenceable(8) ptr @_ZN9__gnu_cxx17__normal_iteratorIPKSt4pairIdN10open_spiel13TabularPolicyEESt6vectorIS4_SaIS4_EEEppEv(ptr noundef nonnull align 8 dereferenceable(8) %9) #3
  br label %21

34:                                               ; preds = %38, %23
  %35 = landingpad { ptr, i32 }
          cleanup
  %36 = extractvalue { ptr, i32 } %35, 0
  store ptr %36, ptr %12, align 8
  %37 = extractvalue { ptr, i32 } %35, 1
  store i32 %37, ptr %13, align 4
  call void @_ZN10open_spiel10algorithms14CorrDevBuilderD2Ev(ptr noundef nonnull align 8 dereferenceable(5088) %7) #3
  br label %40

38:                                               ; preds = %21
  invoke void @_ZNK10open_spiel10algorithms14CorrDevBuilder20GetCorrelationDeviceEv(ptr dead_on_unwind writable sret(%"class.std::vector.34") align 8 %0, ptr noundef nonnull align 8 dereferenceable(5088) %7)
          to label %39 unwind label %34

39:                                               ; preds = %38
  call void @_ZN10open_spiel10algorithms14CorrDevBuilderD2Ev(ptr noundef nonnull align 8 dereferenceable(5088) %7) #3
  ret void

40:                                               ; preds = %34
  %41 = load ptr, ptr %12, align 8
  %42 = load i32, ptr %13, align 4
  %43 = insertvalue { ptr, i32 } poison, ptr %41, 0
  %44 = insertvalue { ptr, i32 } %43, i32 %42, 1
  resume { ptr, i32 } %44
}