; Function Attrs: mustprogress uwtable
define void @_ZN10open_spiel10algorithms25SampledDeterminizeCorrDevERKSt6vectorISt4pairIdNS_13TabularPolicyEESaIS4_EEi(ptr dead_on_unwind noalias writable sret(%"class.std::vector.34") align 8 %0, ptr noundef nonnull readonly align 8 captures(none) dereferenceable(24) %1, i32 noundef %2) local_unnamed_addr #4 personality ptr @__gxx_personality_v0 {
  %4 = alloca %"class.open_spiel::algorithms::CorrDevBuilder", align 8
  call void @_ZN10open_spiel10algorithms14CorrDevBuilderC1Ei(ptr noundef nonnull align 8 dereferenceable(5088) %4, i32 noundef 0)
  %5 = load ptr, ptr %1, align 8
  %6 = getelementptr inbounds nuw i8, ptr %1, i64 8
  %7 = load ptr, ptr %6, align 8
  %.not10 = icmp eq ptr %5, %7
  br i1 %.not10, label %._crit_edge, label %.lr.ph

.lr.ph:                                           ; preds = %3, %10
  %.sroa.07.011 = phi ptr [ %11, %10 ], [ %5, %3 ]
  %8 = getelementptr inbounds nuw i8, ptr %.sroa.07.011, i64 8
  %9 = load double, ptr %.sroa.07.011, align 8
  invoke void @_ZN10open_spiel10algorithms14CorrDevBuilder21AddSampledJointPolicyERKNS_13TabularPolicyEid(ptr noundef nonnull align 8 dereferenceable(5088) %4, ptr noundef nonnull align 8 dereferenceable(64) %8, i32 noundef %2, double noundef %9)
          to label %10 unwind label %.loopexit

10:                                               ; preds = %.lr.ph
  %11 = getelementptr inbounds nuw i8, ptr %.sroa.07.011, i64 72
  %.not = icmp eq ptr %11, %7
  br i1 %.not, label %._crit_edge, label %.lr.ph

.loopexit:                                        ; preds = %.lr.ph
  %lpad.loopexit = landingpad { ptr, i32 }
          cleanup
  br label %12

.loopexit.split-lp:                               ; preds = %._crit_edge
  %lpad.loopexit.split-lp = landingpad { ptr, i32 }
          cleanup
  br label %12

12:                                               ; preds = %.loopexit.split-lp, %.loopexit
  %lpad.phi = phi { ptr, i32 } [ %lpad.loopexit, %.loopexit ], [ %lpad.loopexit.split-lp, %.loopexit.split-lp ]
  call void @_ZN10open_spiel10algorithms14CorrDevBuilderD2Ev(ptr noundef nonnull align 8 dereferenceable(5088) %4) #23
  resume { ptr, i32 } %lpad.phi

._crit_edge:                                      ; preds = %10, %3
  invoke void @_ZNK10open_spiel10algorithms14CorrDevBuilder20GetCorrelationDeviceEv(ptr dead_on_unwind writable sret(%"class.std::vector.34") align 8 %0, ptr noundef nonnull align 8 dereferenceable(5088) %4)
          to label %13 unwind label %.loopexit.split-lp

13:                                               ; preds = %._crit_edge
  call void @_ZN10open_spiel10algorithms14CorrDevBuilderD2Ev(ptr noundef nonnull align 8 dereferenceable(5088) %4) #23
  ret void
}